; Function Attrs: nounwind uwtable
define i32 @phpdbg_out_internal(i32 noundef %0, ptr noundef %1, ...) local_unnamed_addr #0 {
  %3 = alloca [1 x %struct.__va_list_tag], align 16
  %4 = alloca ptr, align 8
  %5 = load i64, ptr getelementptr inbounds (%struct._zend_phpdbg_globals, ptr @phpdbg_globals, i64 0, i32 53), align 8
  %6 = and i64 %5, 4294967296
  %.not = icmp eq i64 %6, 0
  br i1 %.not, label %7, label %12

7:                                                ; preds = %2
  call void @llvm.va_start(ptr nonnull %3)
  %8 = call i32 @vasprintf(ptr noundef nonnull %4, ptr noundef %1, ptr noundef nonnull %3) #10
  call void @llvm.va_end(ptr nonnull %3)
  %9 = load ptr, ptr %4, align 8
  %10 = call i32 @phpdbg_mixed_write(i32 noundef %0, ptr noundef %9, i32 noundef %8) #10
  %11 = load ptr, ptr %4, align 8
  call void @free(ptr noundef %11) #10
  br label %12

12:                                               ; preds = %2, %7
  %.0 = phi i32 [ %10, %7 ], [ 0, %2 ]
  ret i32 %.0
}